target datalayout = "e-m:e-p270:32:32-p271:32:32-p272:64:64-i64:64-i128:128-f80:128-n8:16:32:64-S128"
target triple = "x86_64-pc-linux-gnu"

%struct._lv_line_t = type { %struct._lv_obj_t, %union.anon, i32, i8 }
%struct._lv_obj_t = type { ptr, ptr, ptr, ptr, ptr, %struct.lv_area_t, i32, i16, i16 }
%struct.lv_area_t = type { i32, i32, i32, i32 }
%union.anon = type { ptr }

; Function Attrs: nounwind uwtable
define internal void @lv_line_constructor(ptr noundef %0, ptr noundef %1) #0 {
  %3 = alloca ptr, align 8
  %4 = alloca ptr, align 8
  %5 = alloca ptr, align 8
  store ptr %0, ptr %3, align 8, !tbaa !3
  store ptr %1, ptr %4, align 8, !tbaa !3
  call void @llvm.lifetime.start.p0(i64 8, ptr %5) #4
  %6 = load ptr, ptr %4, align 8, !tbaa !3
  store ptr %6, ptr %5, align 8, !tbaa !3
  %7 = load ptr, ptr %5, align 8, !tbaa !3
  %8 = getelementptr inbounds nuw %struct._lv_line_t, ptr %7, i32 0, i32 2
  store i32 0, ptr %8, align 8, !tbaa !7
  %9 = load ptr, ptr %5, align 8, !tbaa !3
  %10 = getelementptr inbounds nuw %struct._lv_line_t, ptr %9, i32 0, i32 1
  store ptr null, ptr %10, align 8, !tbaa !13
  %11 = load ptr, ptr %5, align 8, !tbaa !3
  %12 = getelementptr inbounds nuw %struct._lv_line_t, ptr %11, i32 0, i32 3
  %13 = load i8, ptr %12, align 4
  %14 = and i8 %13, -2
  %15 = or i8 %14, 0
  store i8 %15, ptr %12, align 4
  %16 = load ptr, ptr %5, align 8, !tbaa !3
  %17 = getelementptr inbounds nuw %struct._lv_line_t, ptr %16, i32 0, i32 3
  %18 = load i8, ptr %17, align 4
  %19 = and i8 %18, -3
  %20 = or i8 %19, 0
  store i8 %20, ptr %17, align 4
  %21 = load ptr, ptr %4, align 8, !tbaa !3
  call void @lv_obj_remove_flag(ptr noundef %21, i32 noundef 2)
  call void @llvm.lifetime.end.p0(i64 8, ptr %5) #4
  ret void
}