; Function Attrs: nounwind uwtable
define internal void @lv_line_constructor(ptr nocapture readnone %0, ptr noundef %1) #0 {
  %3 = getelementptr inbounds nuw i8, ptr %1, i64 72
  store i32 0, ptr %3, align 8, !tbaa !3
  %4 = getelementptr inbounds nuw i8, ptr %1, i64 64
  store ptr null, ptr %4, align 8, !tbaa !12
  %5 = getelementptr inbounds nuw i8, ptr %1, i64 76
  %6 = load i8, ptr %5, align 4
  %7 = and i8 %6, -4
  store i8 %7, ptr %5, align 4
  tail call void @lv_obj_remove_flag(ptr noundef %1, i32 noundef 2) #5
  ret void
}